EXPORTS
??0CClockSpeedInit@@QAE@XZ
??0CSO2DocumentLog@@QAE@XZ
??0CSO2ErrorLog@@QAE@XZ
??0CThread@@QAE@XZ
??0CThreadEvent@@QAE@PAX@Z
??0CThreadEvent@@QAE@_N@Z
??0CThreadFullMutex@@QAE@_NPBD@Z
??0CThreadLocalBase@@QAE@XZ
??0CThreadMutex@@QAE@XZ
??0CThreadRWLock@@QAE@XZ
??0CThreadSemaphore@@QAE@JJ@Z
??0CThreadSpinRWLock@@QAE@XZ
??0CThreadSyncObject@@IAE@XZ
??0CValidatableThread@@QAE@XZ
??0CWorkerThread@@QAE@XZ
??1CSO2DocumentLog@@QAE@XZ
??1CSO2ErrorLog@@QAE@XZ
??1CThread@@UAE@XZ
??1CThreadEvent@@QAE@XZ
??1CThreadFullMutex@@QAE@XZ
??1CThreadLocalBase@@QAE@XZ
??1CThreadMutex@@QAE@XZ
??1CThreadRWLock@@QAE@XZ
??1CThreadSemaphore@@QAE@XZ
??1CThreadSyncObject@@QAE@XZ
??1CValidatableThread@@UAE@XZ
??1CWorkerThread@@UAE@XZ
??4CClockSpeedInit@@QAEAAV0@ABV0@@Z
??4CSO2DocumentLog@@QAEAAV0@ABV0@@Z
??4CSO2ErrorLog@@QAEAAV0@ABV0@@Z
??4CThreadLocalBase@@QAEAAV0@ABV0@@Z
??4CThreadSpinRWLock@@QAEAAV0@ABV0@@Z
??7CThreadSyncObject@@QBE_NXZ
??BCThreadSyncObject@@QAEPAXXZ
??_7CThread@@6B@
??_7CValidatableThread@@6B@
??_7CWorkerThread@@6B@
??_FCThreadEvent@@QAEXXZ
??_FCThreadFullMutex@@QAEXXZ
?AddErrorID@CSO2ErrorLog@@QAEXI@Z
?AddMsg@CSO2DocumentLog@@QAAXHPBDZZ
?AddMsg@CSO2ErrorLog@@QAAXPBDZZ
?AssertOwnedByCurrentThread@CThreadFullMutex@@QAE_NXZ
?AssertOwnedByCurrentThread@CThreadMutex@@QAE_NXZ
?AssertUseable@CThreadSyncObject@@IAEXXZ
?AssignIf@CThreadSpinRWLock@@AAE_NABULockInfo_t@1@0@Z
?BWaitForThreadSuspendCooperative@CThread@@QAEXXZ
?BoostPriority@CWorkerThread@@QAEHXZ
?CalcStackDepth@CThread@@QAEIPAX@Z
?Call@CWorkerThread@@IAEHII_NP6GIHPBQAVCThreadEvent@@HI@ZPAVCFunctor@@@Z
?CallMaster@CWorkerThread@@QAEHII@Z
?CallWorker@CWorkerThread@@QAEHII_NPAVCFunctor@@@Z
?Check@CThreadEvent@@QAE_NXZ
?Cleanup@CThread@@IAEXXZ
?Clear@CSO2ErrorLog@@QAEXXZ
?ConColorMsg@@YAXABVColor@@PBDZZ
?ConLog@@YAXPBDZZ
?ConMsg@@YAXPBDZZ
?ConWarning@@YAXPBDZZ
?Create@CSO2DocumentLog@@QAEXXZ
?CreateSimpleThread@@YAPAUThreadHandle_t__@@P6AIPAX@Z0PAKI@Z
?DevLog@@YAXPBDZZ
?DevMsg@@YAXPBDZZ
?DevWarning@@YAXPBDZZ
?Get@CThreadLocalBase@@QBEPAXXZ
?GetCallHandle@CWorkerThread@@QAEAAVCThreadEvent@@XZ
?GetCallParam@CWorkerThread@@QBEIPAPAVCFunctor@@@Z
?GetCurrentCThread@CThread@@SAPAV1@XZ
?GetErrorID@CSO2ErrorLog@@QBEIXZ
?GetHandle@CThreadSyncObject@@QBEQAXXZ
?GetMsg@CSO2ErrorLog@@QBEPBDI@Z
?GetName@CThread@@QAEPBDXZ
?GetPriority@CThread@@QBEHXZ
?GetResult@CThread@@QAEHXZ
?GetThreadHandle@CThread@@QAEPAXXZ
?GetThreadID@CThread@@IBEPAUThreadHandle_t__@@XZ
?GetThreadId@CThread@@QAEIXZ
?GetThreadProc@CThread@@MAEP6GIPAX@ZXZ
?GetWMsg@CSO2ErrorLog@@QBEPB_WI@Z
?Init@CClockSpeedInit@@SAXXZ
?Init@CThread@@MAE_NXZ
?IsAlive@CThread@@QAE_NXZ
?IsThreadRunning@CThread@@MAE_NXZ
?Join@CThread@@QAE_NI@Z
?Lock@CThreadFastMutex@@ACEXII@Z
?Lock@CThreadFullMutex@@QAEXI@Z
?Lock@CThreadFullMutex@@QAEXXZ
?Lock@CThreadMutex@@QAEXXZ
?Lock@CThreadMutex@@QBEXXZ
?LockForRead@CThreadRWLock@@QAEXXZ
?LockForRead@CThreadRWLock@@QBEXXZ
?LockForRead@CThreadSpinRWLock@@QAEXXZ
?LockForRead@CThreadSpinRWLock@@QBEXXZ
?LockForWrite@CThreadRWLock@@QAEXXZ
?LockForWrite@CThreadRWLock@@QBEXXZ
?LockForWrite@CThreadSpinRWLock@@QAEXXZ
?LockForWrite@CThreadSpinRWLock@@QBEXXZ
?OnExit@CThread@@MAEXXZ
?PeekCall@CWorkerThread@@QAE_NPAIPAPAVCFunctor@@@Z
?Release@CThreadFullMutex@@QAE_NXZ
?Release@CThreadSemaphore@@QAE_NJPAJ@Z
?Reply@CWorkerThread@@QAEXI@Z
?Reset@CThreadEvent@@QAE_NXZ
?Resume@CThread@@QAEIXZ
?ResumeCooperative@CThread@@QAEXXZ
?Set@CThreadEvent@@QAE_NXZ
?Set@CThreadLocalBase@@QAEXPAX@Z
?SetName@CThread@@QAEXPBD@Z
?SetPriority@CThread@@QAE_NH@Z
?SetTrace@CThreadFullMutex@@QAEX_N@Z
?SetTrace@CThreadMutex@@QAEX_N@Z
?Sleep@CThread@@SAXI@Z
?SpinLockForWrite@CThreadSpinRWLock@@AAEXI@Z
?Start@CThread@@UAE_NI@Z
?Stop@CThread@@QAEXH@Z
?Suspend@CThread@@QAEIXZ
?SuspendCooperative@CThread@@QAEXXZ
?Terminate@CThread@@QAE_NH@Z
?ThreadProc@CThread@@CGIPAX@Z
?TryLock@CThreadMutex@@QAE_NXZ
?TryLock@CThreadMutex@@QBE_NXZ
?TryLockForRead@CThreadSpinRWLock@@QAE_NXZ
?TryLockForRead@CThreadSpinRWLock@@QBE_NXZ
?TryLockForWrite@CThreadSpinRWLock@@AAE_NI@Z
?TryLockForWrite@CThreadSpinRWLock@@QAE_NXZ
?TryLockForWrite@CThreadSpinRWLock@@QBE_NXZ
?Unlock@CThreadFullMutex@@QAEXXZ
?Unlock@CThreadMutex@@QAEXXZ
?Unlock@CThreadMutex@@QBEXXZ
?UnlockRead@CThreadRWLock@@QAEXXZ
?UnlockRead@CThreadRWLock@@QBEXXZ
?UnlockRead@CThreadSpinRWLock@@QAEXXZ
?UnlockRead@CThreadSpinRWLock@@QBEXXZ
?UnlockWrite@CThreadRWLock@@QAEXXZ
?UnlockWrite@CThreadRWLock@@QBEXXZ
?UnlockWrite@CThreadSpinRWLock@@QAEXXZ
?UnlockWrite@CThreadSpinRWLock@@QBEXXZ
?Wait@CThreadEvent@@QAE_NI@Z
?Wait@CThreadSyncObject@@QAE_NI@Z
?WaitForCall@CWorkerThread@@QAE_NIPAI@Z
?WaitForCall@CWorkerThread@@QAE_NPAI@Z
?WaitForCreateComplete@CThread@@IAE_NPAVCThreadEvent@@@Z
?WaitForRead@CThreadRWLock@@AAEXXZ
?WaitForReply@CWorkerThread@@IAEHIP6GIHPBQAVCThreadEvent@@HI@Z@Z
?WaitForReply@CWorkerThread@@QAEHI@Z
?Yield@CThread@@SAXXZ
?g_bInException@@3_NA
?oldValue@?4??TryLockForWrite@CThreadSpinRWLock@@AAE_NI@Z@4ULockInfo_t@2@B
AreAllAssertsDisabled
AssertValidStringPtr
COM_TimestampedLog
COM_WriteReportLog
COM_WriteReportLogW
CSO2FormatMessageBox
CSO2FormatMessageBoxW
CSO2MessageBox
CSO2MessageBoxW
CSO2_WriteStageLog
CallAssertFailedNotifyFunc
CatchAndWriteMiniDump
CatchAndWriteMiniDumpEx
CatchAndWriteMiniDumpExForVoidPtrFn
CatchAndWriteMiniDumpExReturnsInt
CatchAndWriteMiniDumpForVoidPtrFn
ColorSpewMessage
CommandLine_Tier0
ConColorMsg
ConDColorMsg
ConDLog
ConDMsg
ConDWarning
ConLog
ConMsg
ConWarning
CrackSmokingCompiler
CreateSimpleThread
DLog
DMsg
DWarning
DeclareCurrentThreadIsMainThread
DevLog
DevMsg
DevWarning
DoNewAssertDialog
Error
FindLikelyParentWindow
GetCPUFrequencyResults
GetCPUInformation
GetCPUUsage
GetCSO2ClientLogWriter
GetCSO2LoadingSplash
GetCSO2PreCommandLineParser
GetCurrentDate
GetSpewOutputColor
GetSpewOutputFunc
GetSpewOutputGroup
GetSpewOutputLevel
GetThreadedLoadLibraryFunc
InitPME
InstallProgressReportHandler
Is64BitOS
IsSpewActive
Log
MemAllocScratch
MemFreeScratch
Msg
NetLog
NetMsg
NetWarning
Plat_Alloc
Plat_ApplyHardwareDataBreakpointsToNewThread
Plat_BeginWatchdogTimer
Plat_CSO2BuildVersion
Plat_DebugString
Plat_EndWatchdogTimer
Plat_FastVerifyHardwareKey
Plat_FloatTime
Plat_Free
Plat_GetCommandLine
Plat_GetCommandLineA
Plat_GetMemPageSize
Plat_GetPagedPoolInfo
Plat_GetWatchdogTime
Plat_IsInBenchmarkMode
Plat_IsInDebugSession
Plat_MSTime
Plat_Realloc
Plat_SetAllocErrorFn
Plat_SetBenchmarkMode
Plat_SetHardwareDataBreakpoint
Plat_SetWatchdogHandlerFunction
Plat_SimpleLog
Plat_VerifyHardwareKey
Plat_VerifyHardwareKeyDriver
Plat_VerifyHardwareKeyPrompt
Plat_ctime
Plat_gmtime
Plat_localtime
Plat_timegm
ReleaseThreadHandle
ReportProgress
RunTSListTests
RunTSQueueTests
Script_Warning
SetAllAssertsDisabled
SetAssertFailedNotifyFunc
SetCPUMonitoringInterval
SetMiniDumpFunction
SetMinidumpComment
SetMinidumpFilenamePrefix
SetThreadedLoadLibraryFunc
SetupWin32ConsoleIO
ShouldUseNewAssertDialog
ShutdownPME
SpewActivate
SpewOutputFunc
ThreadDetach
ThreadGetCurrentHandle
ThreadGetPriority
ThreadInMainThread
ThreadInterlockedAssignIf64
ThreadInterlockedCompareExchange64
ThreadInterlockedDecrement64
ThreadInterlockedExchange64
ThreadInterlockedExchangeAdd64
ThreadInterlockedIncrement64
ThreadJoin
ThreadSetAffinity
ThreadSetDebugName
ThreadSetPriority
ThreadSleep
ThreadWaitForObjects
VoidFnPtrLookup_Tier0
Warning
WriteMiniDump
WriteMiniDumpUsingExceptionInfo
_AssertValidReadPtr
_AssertValidReadWritePtr
_AssertValidWritePtr
_DSpewMessage
_ExitOnFatalAssert
_SpewInfo
_SpewMessage
g_CSO2DocLog
g_CSO2ErrorLog
g_ClockSpeed
g_ClockSpeedMicrosecondsMultiplier
g_ClockSpeedMillisecondsMultiplier
g_ClockSpeedSecondsMultiplier
g_dwClockSpeed
g_pMemAlloc DATA
g_pVCR
vtune
